target datalayout = "e-m:e-p270:32:32-p271:32:32-p272:64:64-i64:64-i128:128-f80:128-n8:16:32:64-S128"
target triple = "x86_64-pc-linux-gnu"

%struct._zval_struct = type { %union._zend_value, %union.anon.3, %union.anon.6 }
%union._zend_value = type { i64 }
%union.anon.3 = type { i32 }
%union.anon.6 = type { i32 }
%struct._php_stream_bucket_brigade = type { ptr, ptr }
%struct._php_stream_filter = type { ptr, %struct._zval_struct, ptr, ptr, i32, ptr, %struct._php_stream_bucket_brigade, ptr }
%struct._php_stream_filter_ops = type { ptr, ptr, ptr }

; Function Attrs: nounwind uwtable
define void @php_stream_filter_free(ptr noundef %0) #0 {
  %2 = alloca ptr, align 8
  store ptr %0, ptr %2, align 8
  %3 = load ptr, ptr %2, align 8
  %4 = getelementptr inbounds %struct._php_stream_filter, ptr %3, i32 0, i32 0
  %5 = load ptr, ptr %4, align 8
  %6 = getelementptr inbounds %struct._php_stream_filter_ops, ptr %5, i32 0, i32 1
  %7 = load ptr, ptr %6, align 8
  %8 = icmp ne ptr %7, null
  br i1 %8, label %9, label %16

9:                                                ; preds = %1
  %10 = load ptr, ptr %2, align 8
  %11 = getelementptr inbounds %struct._php_stream_filter, ptr %10, i32 0, i32 0
  %12 = load ptr, ptr %11, align 8
  %13 = getelementptr inbounds %struct._php_stream_filter_ops, ptr %12, i32 0, i32 1
  %14 = load ptr, ptr %13, align 8
  %15 = load ptr, ptr %2, align 8
  call void %14(ptr noundef %15)
  br label %16

16:                                               ; preds = %9, %1
  %17 = load ptr, ptr %2, align 8
  %18 = getelementptr inbounds %struct._php_stream_filter, ptr %17, i32 0, i32 4
  %19 = load i32, ptr %18, align 8
  %20 = icmp ne i32 %19, 0
  br i1 %20, label %21, label %23

21:                                               ; preds = %16
  %22 = load ptr, ptr %2, align 8
  call void @free(ptr noundef %22) #12
  br label %25

23:                                               ; preds = %16
  %24 = load ptr, ptr %2, align 8
  call void @_efree(ptr noundef %24)
  br label %25

25:                                               ; preds = %23, %21
  ret void
}