; Function Attrs: nounwind uwtable
define void @php_stream_filter_free(ptr noundef %0) local_unnamed_addr #2 {
  %2 = load ptr, ptr %0, align 8
  %3 = getelementptr inbounds i8, ptr %2, i64 8
  %4 = load ptr, ptr %3, align 8
  %.not = icmp eq ptr %4, null
  br i1 %.not, label %6, label %5

5:                                                ; preds = %1
  tail call void %4(ptr noundef nonnull %0) #14
  br label %6

6:                                                ; preds = %5, %1
  %7 = getelementptr inbounds i8, ptr %0, i64 40
  %8 = load i32, ptr %7, align 8
  %.not6 = icmp eq i32 %8, 0
  br i1 %.not6, label %10, label %9

9:                                                ; preds = %6
  tail call void @free(ptr noundef nonnull %0) #14
  br label %11

10:                                               ; preds = %6
  tail call void @_efree(ptr noundef nonnull %0) #14
  br label %11

11:                                               ; preds = %10, %9
  ret void
}